; Function Attrs: mustprogress uwtable
define noundef i64 @_ZNK5faiss18PolysemousTraining23memory_usage_per_threadERKNS_16ProductQuantizerE(ptr noundef nonnull readonly align 8 captures(none) dereferenceable(96) %0, ptr noundef nonnull readonly align 8 captures(none) dereferenceable(216) %1) local_unnamed_addr #0 align 2 personality ptr @__gxx_personality_v0 {
  %3 = alloca %"class.std::__cxx11::basic_string", align 8
  %4 = alloca %"class.std::allocator.0", align 1
  %5 = getelementptr inbounds nuw i8, ptr %1, i64 48
  %6 = load i64, ptr %5, align 8, !tbaa !88
  %7 = getelementptr inbounds nuw i8, ptr %0, i64 36
  %8 = load i32, ptr %7, align 4, !tbaa !71
  switch i32 %8, label %16 [
    i32 0, label %33
    i32 1, label %9
    i32 2, label %12
  ]

9:                                                ; preds = %2
  %10 = mul i64 %6, %6
  %11 = mul i64 %10, 24
  br label %33

12:                                               ; preds = %2
  %13 = mul i64 %6, %6
  %14 = shl i64 %13, 2
  %15 = mul i64 %14, %6
  br label %33

16:                                               ; preds = %2
  %17 = tail call ptr @__cxa_allocate_exception(i64 40) #21
  call void @llvm.lifetime.start.p0(i64 32, ptr nonnull %3) #21
  call void @llvm.lifetime.start.p0(i64 1, ptr nonnull %4) #21
  invoke void @_ZNSt7__cxx1112basic_stringIcSt11char_traitsIcESaIcEEC2IS3_EEPKcRKS3_(ptr noundef nonnull align 8 dereferenceable(32) %3, ptr noundef nonnull @.str.27, ptr noundef nonnull align 1 dereferenceable(1) %4)
          to label %18 unwind label %_ZNSt7__cxx1112basic_stringIcSt11char_traitsIcESaIcEED2Ev.exit.thread

18:                                               ; preds = %16
  invoke void @_ZN5faiss14FaissExceptionC1ERKNSt7__cxx1112basic_stringIcSt11char_traitsIcESaIcEEEPKcSA_i(ptr noundef nonnull align 8 dereferenceable(40) %17, ptr noundef nonnull align 8 dereferenceable(32) %3, ptr noundef nonnull @__PRETTY_FUNCTION__._ZNK5faiss18PolysemousTraining23memory_usage_per_threadERKNS_16ProductQuantizerE, ptr noundef nonnull @.str.3, i32 noundef 967)
          to label %19 unwind label %21

19:                                               ; preds = %18
  invoke void @__cxa_throw(ptr nonnull %17, ptr nonnull @_ZTIN5faiss14FaissExceptionE, ptr nonnull @_ZN5faiss14FaissExceptionD2Ev) #28
          to label %34 unwind label %21

_ZNSt7__cxx1112basic_stringIcSt11char_traitsIcESaIcEED2Ev.exit.thread: ; preds = %16
  %20 = landingpad { ptr, i32 }
          cleanup
  call void @llvm.lifetime.end.p0(i64 1, ptr nonnull %4) #21
  call void @llvm.lifetime.end.p0(i64 32, ptr nonnull %3) #21
  br label %31

21:                                               ; preds = %19, %18
  %.0 = phi i1 [ false, %19 ], [ true, %18 ]
  %22 = landingpad { ptr, i32 }
          cleanup
  %23 = load ptr, ptr %3, align 8, !tbaa !45
  %24 = getelementptr inbounds nuw i8, ptr %3, i64 16
  %25 = icmp eq ptr %23, %24
  br i1 %25, label %_ZNKSt7__cxx1112basic_stringIcSt11char_traitsIcESaIcEE11_M_is_localEv.exit.thread.i.i, label %_ZNSt7__cxx1112basic_stringIcSt11char_traitsIcESaIcEED2Ev.exit

_ZNKSt7__cxx1112basic_stringIcSt11char_traitsIcESaIcEE11_M_is_localEv.exit.thread.i.i: ; preds = %21
  %26 = getelementptr inbounds nuw i8, ptr %3, i64 8
  %27 = load i64, ptr %26, align 8, !tbaa !41
  %28 = icmp ult i64 %27, 16
  call void @llvm.assume(i1 %28)
  call void @llvm.lifetime.end.p0(i64 1, ptr nonnull %4) #21
  call void @llvm.lifetime.end.p0(i64 32, ptr nonnull %3) #21
  br i1 %.0, label %31, label %32

_ZNSt7__cxx1112basic_stringIcSt11char_traitsIcESaIcEED2Ev.exit: ; preds = %21
  %29 = load i64, ptr %24, align 8, !tbaa !44
  %30 = add i64 %29, 1
  call void @_ZdlPvm(ptr noundef %23, i64 noundef %30) #30
  call void @llvm.lifetime.end.p0(i64 1, ptr nonnull %4) #21
  call void @llvm.lifetime.end.p0(i64 32, ptr nonnull %3) #21
  br i1 %.0, label %31, label %32

31:                                               ; preds = %_ZNKSt7__cxx1112basic_stringIcSt11char_traitsIcESaIcEE11_M_is_localEv.exit.thread.i.i, %_ZNSt7__cxx1112basic_stringIcSt11char_traitsIcESaIcEED2Ev.exit.thread, %_ZNSt7__cxx1112basic_stringIcSt11char_traitsIcESaIcEED2Ev.exit
  %.pn17 = phi { ptr, i32 } [ %20, %_ZNSt7__cxx1112basic_stringIcSt11char_traitsIcESaIcEED2Ev.exit.thread ], [ %22, %_ZNSt7__cxx1112basic_stringIcSt11char_traitsIcESaIcEED2Ev.exit ], [ %22, %_ZNKSt7__cxx1112basic_stringIcSt11char_traitsIcESaIcEE11_M_is_localEv.exit.thread.i.i ]
  call void @__cxa_free_exception(ptr %17) #21
  br label %32

32:                                               ; preds = %_ZNKSt7__cxx1112basic_stringIcSt11char_traitsIcESaIcEE11_M_is_localEv.exit.thread.i.i, %31, %_ZNSt7__cxx1112basic_stringIcSt11char_traitsIcESaIcEED2Ev.exit
  %.pn16 = phi { ptr, i32 } [ %.pn17, %31 ], [ %22, %_ZNSt7__cxx1112basic_stringIcSt11char_traitsIcESaIcEED2Ev.exit ], [ %22, %_ZNKSt7__cxx1112basic_stringIcSt11char_traitsIcESaIcEE11_M_is_localEv.exit.thread.i.i ]
  resume { ptr, i32 } %.pn16

33:                                               ; preds = %2, %12, %9
  %.012 = phi i64 [ %15, %12 ], [ %11, %9 ], [ 0, %2 ]
  ret i64 %.012

34:                                               ; preds = %19
  unreachable
}